target datalayout = "e-m:e-p270:32:32-p271:32:32-p272:64:64-i64:64-i128:128-f80:128-n8:16:32:64-S128"
target triple = "x86_64-pc-linux-gnu"

@_ZN3url11kHttpSchemeE = external constant [0 x i8], align 1
@_ZN3url12kHttpsSchemeE = external constant [0 x i8], align 1
@_ZN3url10kFtpSchemeE = external constant [0 x i8], align 1
@_ZN3url10kWssSchemeE = external constant [0 x i8], align 1
@_ZN3url13kGopherSchemeE = external constant [0 x i8], align 1
@_ZN3url9kWsSchemeE = external constant [0 x i8], align 1

; Function Attrs: mustprogress nounwind uwtable
define noundef i32 @_ZN3url20DefaultPortForSchemeEPKci(ptr noundef %0, i32 noundef %1) #0 {
  %3 = alloca ptr, align 8
  %4 = alloca i32, align 4
  %5 = alloca i32, align 4
  store ptr %0, ptr %3, align 8, !tbaa !3
  store i32 %1, ptr %4, align 4, !tbaa !8
  call void @llvm.lifetime.start.p0(i64 4, ptr %5) #12
  store i32 -1, ptr %5, align 4, !tbaa !8
  %6 = load i32, ptr %4, align 4, !tbaa !8
  switch i32 %6, label %55 [
    i32 4, label %7
    i32 5, label %15
    i32 3, label %23
    i32 6, label %39
    i32 2, label %47
  ]

7:                                                ; preds = %2
  %8 = load ptr, ptr %3, align 8, !tbaa !3
  %9 = load i32, ptr %4, align 4, !tbaa !8
  %10 = sext i32 %9 to i64
  %11 = call i32 @strncmp(ptr noundef %8, ptr noundef @_ZN3url11kHttpSchemeE, i64 noundef %10) #13
  %12 = icmp ne i32 %11, 0
  br i1 %12, label %14, label %13

13:                                               ; preds = %7
  store i32 80, ptr %5, align 4, !tbaa !8
  br label %14

14:                                               ; preds = %13, %7
  br label %55

15:                                               ; preds = %2
  %16 = load ptr, ptr %3, align 8, !tbaa !3
  %17 = load i32, ptr %4, align 4, !tbaa !8
  %18 = sext i32 %17 to i64
  %19 = call i32 @strncmp(ptr noundef %16, ptr noundef @_ZN3url12kHttpsSchemeE, i64 noundef %18) #13
  %20 = icmp ne i32 %19, 0
  br i1 %20, label %22, label %21

21:                                               ; preds = %15
  store i32 443, ptr %5, align 4, !tbaa !8
  br label %22

22:                                               ; preds = %21, %15
  br label %55

23:                                               ; preds = %2
  %24 = load ptr, ptr %3, align 8, !tbaa !3
  %25 = load i32, ptr %4, align 4, !tbaa !8
  %26 = sext i32 %25 to i64
  %27 = call i32 @strncmp(ptr noundef %24, ptr noundef @_ZN3url10kFtpSchemeE, i64 noundef %26) #13
  %28 = icmp ne i32 %27, 0
  br i1 %28, label %30, label %29

29:                                               ; preds = %23
  store i32 21, ptr %5, align 4, !tbaa !8
  br label %38

30:                                               ; preds = %23
  %31 = load ptr, ptr %3, align 8, !tbaa !3
  %32 = load i32, ptr %4, align 4, !tbaa !8
  %33 = sext i32 %32 to i64
  %34 = call i32 @strncmp(ptr noundef %31, ptr noundef @_ZN3url10kWssSchemeE, i64 noundef %33) #13
  %35 = icmp ne i32 %34, 0
  br i1 %35, label %37, label %36

36:                                               ; preds = %30
  store i32 443, ptr %5, align 4, !tbaa !8
  br label %37

37:                                               ; preds = %36, %30
  br label %38

38:                                               ; preds = %37, %29
  br label %55

39:                                               ; preds = %2
  %40 = load ptr, ptr %3, align 8, !tbaa !3
  %41 = load i32, ptr %4, align 4, !tbaa !8
  %42 = sext i32 %41 to i64
  %43 = call i32 @strncmp(ptr noundef %40, ptr noundef @_ZN3url13kGopherSchemeE, i64 noundef %42) #13
  %44 = icmp ne i32 %43, 0
  br i1 %44, label %46, label %45

45:                                               ; preds = %39
  store i32 70, ptr %5, align 4, !tbaa !8
  br label %46

46:                                               ; preds = %45, %39
  br label %55

47:                                               ; preds = %2
  %48 = load ptr, ptr %3, align 8, !tbaa !3
  %49 = load i32, ptr %4, align 4, !tbaa !8
  %50 = sext i32 %49 to i64
  %51 = call i32 @strncmp(ptr noundef %48, ptr noundef @_ZN3url9kWsSchemeE, i64 noundef %50) #13
  %52 = icmp ne i32 %51, 0
  br i1 %52, label %54, label %53

53:                                               ; preds = %47
  store i32 80, ptr %5, align 4, !tbaa !8
  br label %54

54:                                               ; preds = %53, %47
  br label %55

55:                                               ; preds = %2, %54, %46, %38, %22, %14
  %56 = load i32, ptr %5, align 4, !tbaa !8
  call void @llvm.lifetime.end.p0(i64 4, ptr %5) #12
  ret i32 %56
}