; Function Attrs: mustprogress nofree nounwind willreturn memory(argmem: read) uwtable
define noundef range(i32 -1, 444) i32 @_ZN3url20DefaultPortForSchemeEPKci(ptr noundef readonly captures(none) %0, i32 noundef %1) local_unnamed_addr #0 {
  switch i32 %1, label %15 [
    i32 4, label %3
    i32 5, label %5
    i32 3, label %7
    i32 6, label %11
    i32 2, label %13
  ]

3:                                                ; preds = %2
  %4 = tail call i32 @strncmp(ptr noundef nonnull dereferenceable(1) %0, ptr noundef nonnull dereferenceable(1) @_ZN3url11kHttpSchemeE, i64 noundef 4) #12
  %.not18 = icmp eq i32 %4, 0
  %spec.select = select i1 %.not18, i32 80, i32 -1
  br label %15

5:                                                ; preds = %2
  %6 = tail call i32 @strncmp(ptr noundef nonnull dereferenceable(1) %0, ptr noundef nonnull dereferenceable(1) @_ZN3url12kHttpsSchemeE, i64 noundef 5) #12
  %.not17 = icmp eq i32 %6, 0
  %spec.select19 = select i1 %.not17, i32 443, i32 -1
  br label %15

7:                                                ; preds = %2
  %8 = tail call i32 @strncmp(ptr noundef nonnull dereferenceable(1) %0, ptr noundef nonnull dereferenceable(1) @_ZN3url10kFtpSchemeE, i64 noundef 3) #12
  %.not15 = icmp eq i32 %8, 0
  br i1 %.not15, label %15, label %9

9:                                                ; preds = %7
  %10 = tail call i32 @strncmp(ptr noundef nonnull dereferenceable(1) %0, ptr noundef nonnull dereferenceable(1) @_ZN3url10kWssSchemeE, i64 noundef 3) #12
  %.not16 = icmp eq i32 %10, 0
  %spec.select20 = select i1 %.not16, i32 443, i32 -1
  br label %15

11:                                               ; preds = %2
  %12 = tail call i32 @strncmp(ptr noundef nonnull dereferenceable(1) %0, ptr noundef nonnull dereferenceable(1) @_ZN3url13kGopherSchemeE, i64 noundef 6) #12
  %.not14 = icmp eq i32 %12, 0
  %spec.select21 = select i1 %.not14, i32 70, i32 -1
  br label %15

13:                                               ; preds = %2
  %14 = tail call i32 @strncmp(ptr noundef nonnull dereferenceable(1) %0, ptr noundef nonnull dereferenceable(1) @_ZN3url9kWsSchemeE, i64 noundef 2) #12
  %.not = icmp eq i32 %14, 0
  %spec.select22 = select i1 %.not, i32 80, i32 -1
  br label %15

15:                                               ; preds = %13, %11, %9, %5, %3, %7, %2
  %.0 = phi i32 [ -1, %2 ], [ %spec.select, %3 ], [ %spec.select19, %5 ], [ 21, %7 ], [ %spec.select20, %9 ], [ %spec.select21, %11 ], [ %spec.select22, %13 ]
  ret i32 %.0
}